target datalayout = "e-m:e-p270:32:32-p271:32:32-p272:64:64-i64:64-i128:128-f80:128-n8:16:32:64-S128"
target triple = "x86_64-pc-linux-gnu"

%struct.UEnumeration = type { ptr, ptr, ptr, ptr, ptr, ptr, ptr }
%struct.UCharStringEnumeration = type { %struct.UEnumeration, i32, i32 }

; Function Attrs: mustprogress uwtable
define internal noundef ptr @_ZL18ucharstrenum_unextP12UEnumerationPiP10UErrorCode(ptr noundef %0, ptr noundef %1, ptr noundef %2) #0 {
  %4 = alloca ptr, align 8
  %5 = alloca ptr, align 8
  %6 = alloca ptr, align 8
  %7 = alloca ptr, align 8
  %8 = alloca ptr, align 8
  %9 = alloca i32, align 4
  %10 = alloca ptr, align 8
  store ptr %0, ptr %5, align 8, !tbaa !38
  store ptr %1, ptr %6, align 8, !tbaa !23
  store ptr %2, ptr %7, align 8, !tbaa !25
  call void @llvm.lifetime.start.p0(i64 8, ptr %8) #12
  %11 = load ptr, ptr %5, align 8, !tbaa !38
  store ptr %11, ptr %8, align 8, !tbaa !49
  %12 = load ptr, ptr %8, align 8, !tbaa !49
  %13 = getelementptr inbounds nuw %struct.UCharStringEnumeration, ptr %12, i32 0, i32 1
  %14 = load i32, ptr %13, align 8, !tbaa !53
  %15 = load ptr, ptr %8, align 8, !tbaa !49
  %16 = getelementptr inbounds nuw %struct.UCharStringEnumeration, ptr %15, i32 0, i32 2
  %17 = load i32, ptr %16, align 4, !tbaa !54
  %18 = icmp sge i32 %14, %17
  br i1 %18, label %19, label %20

19:                                               ; preds = %3
  store ptr null, ptr %4, align 8
  store i32 1, ptr %9, align 4
  br label %40

20:                                               ; preds = %3
  call void @llvm.lifetime.start.p0(i64 8, ptr %10) #12
  %21 = load ptr, ptr %8, align 8, !tbaa !49
  %22 = getelementptr inbounds nuw %struct.UCharStringEnumeration, ptr %21, i32 0, i32 0
  %23 = getelementptr inbounds nuw %struct.UEnumeration, ptr %22, i32 0, i32 1
  %24 = load ptr, ptr %23, align 8, !tbaa !51
  %25 = load ptr, ptr %8, align 8, !tbaa !49
  %26 = getelementptr inbounds nuw %struct.UCharStringEnumeration, ptr %25, i32 0, i32 1
  %27 = load i32, ptr %26, align 8, !tbaa !53
  %28 = add nsw i32 %27, 1
  store i32 %28, ptr %26, align 8, !tbaa !53
  %29 = sext i32 %27 to i64
  %30 = getelementptr inbounds ptr, ptr %24, i64 %29
  %31 = load ptr, ptr %30, align 8, !tbaa !30
  store ptr %31, ptr %10, align 8, !tbaa !30
  %32 = load ptr, ptr %6, align 8, !tbaa !23
  %33 = icmp ne ptr %32, null
  br i1 %33, label %34, label %38

34:                                               ; preds = %20
  %35 = load ptr, ptr %10, align 8, !tbaa !30
  %36 = call i32 @u_strlen_77(ptr noundef %35)
  %37 = load ptr, ptr %6, align 8, !tbaa !23
  store i32 %36, ptr %37, align 4, !tbaa !28
  br label %38

38:                                               ; preds = %34, %20
  %39 = load ptr, ptr %10, align 8, !tbaa !30
  store ptr %39, ptr %4, align 8
  store i32 1, ptr %9, align 4
  call void @llvm.lifetime.end.p0(i64 8, ptr %10) #12
  br label %40

40:                                               ; preds = %38, %19
  call void @llvm.lifetime.end.p0(i64 8, ptr %8) #12
  %41 = load ptr, ptr %4, align 8
  ret ptr %41
}