; Function Attrs: mustprogress uwtable
define internal noundef ptr @_ZL18ucharstrenum_unextP12UEnumerationPiP10UErrorCode(ptr noundef captures(none) %0, ptr noundef writeonly %1, ptr readnone captures(none) %2) #9 {
  %4 = getelementptr inbounds nuw i8, ptr %0, i64 56
  %5 = load i32, ptr %4, align 8, !tbaa !31
  %6 = getelementptr inbounds nuw i8, ptr %0, i64 60
  %7 = load i32, ptr %6, align 4, !tbaa !32
  %.not = icmp slt i32 %5, %7
  br i1 %.not, label %8, label %17

8:                                                ; preds = %3
  %9 = getelementptr inbounds nuw i8, ptr %0, i64 8
  %10 = load ptr, ptr %9, align 8, !tbaa !29
  %11 = add nsw i32 %5, 1
  store i32 %11, ptr %4, align 8, !tbaa !31
  %12 = sext i32 %5 to i64
  %13 = getelementptr inbounds ptr, ptr %10, i64 %12
  %14 = load ptr, ptr %13, align 8, !tbaa !34
  %.not12 = icmp eq ptr %1, null
  br i1 %.not12, label %17, label %15

15:                                               ; preds = %8
  %16 = tail call i32 @u_strlen_77(ptr noundef %14)
  store i32 %16, ptr %1, align 4, !tbaa !19
  br label %17

17:                                               ; preds = %8, %15, %3
  %.0 = phi ptr [ null, %3 ], [ %14, %15 ], [ %14, %8 ]
  ret ptr %.0
}